; Function Attrs: mustprogress uwtable
define hidden void @_ZN14solver2smt2_pp4pushEv(ptr noundef nonnull align 8 dereferenceable(1240) %0) local_unnamed_addr #3 align 2 {
  %2 = getelementptr inbounds nuw i8, ptr %0, i64 704
  %3 = tail call noundef nonnull align 8 dereferenceable(8) ptr @_ZSt16__ostream_insertIcSt11char_traitsIcEERSt13basic_ostreamIT_T0_ES6_PKS3_l(ptr noundef nonnull align 8 dereferenceable(8) %2, ptr noundef nonnull @.str, i64 noundef 9)
  tail call void @_ZN11ast_pp_util4pushEv(ptr noundef nonnull align 8 dereferenceable(704) %0)
  %4 = getelementptr inbounds nuw i8, ptr %0, i64 1232
  %5 = getelementptr inbounds nuw i8, ptr %0, i64 1224
  %6 = load ptr, ptr %5, align 8, !tbaa !8
  %7 = icmp eq ptr %6, null
  br i1 %7, label %_ZNK15ref_vector_coreI4expr19ref_manager_wrapperIS0_11ast_managerEE4sizeEv.exit, label %8

8:                                                ; preds = %1
  %9 = getelementptr inbounds i8, ptr %6, i64 -4
  %10 = load i32, ptr %9, align 4, !tbaa !13
  br label %_ZNK15ref_vector_coreI4expr19ref_manager_wrapperIS0_11ast_managerEE4sizeEv.exit

_ZNK15ref_vector_coreI4expr19ref_manager_wrapperIS0_11ast_managerEE4sizeEv.exit: ; preds = %1, %8
  %.0.i.i = phi i32 [ %10, %8 ], [ 0, %1 ]
  %11 = load ptr, ptr %4, align 8, !tbaa !16
  %12 = icmp eq ptr %11, null
  br i1 %12, label %19, label %13

13:                                               ; preds = %_ZNK15ref_vector_coreI4expr19ref_manager_wrapperIS0_11ast_managerEE4sizeEv.exit
  %14 = getelementptr inbounds i8, ptr %11, i64 -4
  %15 = load i32, ptr %14, align 4, !tbaa !13
  %16 = getelementptr inbounds i8, ptr %11, i64 -8
  %17 = load i32, ptr %16, align 4, !tbaa !13
  %18 = icmp eq i32 %15, %17
  br i1 %18, label %19, label %_ZN6vectorIjLb0EjE9push_backEOj.exit

19:                                               ; preds = %13, %_ZNK15ref_vector_coreI4expr19ref_manager_wrapperIS0_11ast_managerEE4sizeEv.exit
  tail call void @_ZN6vectorIjLb0EjE13expand_vectorEv(ptr noundef nonnull align 8 dereferenceable(8) %4)
  %.pre.i = load ptr, ptr %4, align 8, !tbaa !16
  %.phi.trans.insert.i = getelementptr inbounds i8, ptr %.pre.i, i64 -4
  %.pre2.i = load i32, ptr %.phi.trans.insert.i, align 4, !tbaa !13
  br label %_ZN6vectorIjLb0EjE9push_backEOj.exit

_ZN6vectorIjLb0EjE9push_backEOj.exit:             ; preds = %13, %19
  %20 = phi i32 [ %.pre2.i, %19 ], [ %15, %13 ]
  %21 = phi ptr [ %.pre.i, %19 ], [ %11, %13 ]
  %22 = getelementptr inbounds i8, ptr %21, i64 -4
  %23 = zext i32 %20 to i64
  %24 = getelementptr inbounds nuw i32, ptr %21, i64 %23
  store i32 %.0.i.i, ptr %24, align 4, !tbaa !13
  %25 = add i32 %20, 1
  store i32 %25, ptr %22, align 4, !tbaa !13
  ret void
}